; Function Attrs: mustprogress uwtable
define void @_ZN6casadi6MatrixINS_6SXElemEE7hessianERKS2_S4_RKSt3mapINSt7__cxx1112basic_stringIcSt11char_traitsIcESaIcEEENS_11GenericTypeESt4lessISB_ESaISt4pairIKSB_SC_EEE(ptr dead_on_unwind noalias writable sret(%"class.casadi::Matrix") align 8 %0, ptr noundef nonnull align 8 dereferenceable(40) %1, ptr noundef nonnull align 8 dereferenceable(40) %2, ptr noundef nonnull align 8 dereferenceable(48) %3) local_unnamed_addr #3 align 2 personality ptr @__gxx_personality_v0 {
  %5 = alloca %"class.casadi::Matrix", align 8
  call void @_ZN6casadi6MatrixINS_6SXElemEEC1Ev(ptr noundef nonnull align 8 dereferenceable(40) %5)
  invoke void @_ZN6casadi6MatrixINS_6SXElemEE7hessianERKS2_S4_RS2_RKSt3mapINSt7__cxx1112basic_stringIcSt11char_traitsIcESaIcEEENS_11GenericTypeESt4lessISC_ESaISt4pairIKSC_SD_EEE(ptr dead_on_unwind writable sret(%"class.casadi::Matrix") align 8 %0, ptr noundef nonnull align 8 dereferenceable(40) %1, ptr noundef nonnull align 8 dereferenceable(40) %2, ptr noundef nonnull align 8 dereferenceable(40) %5, ptr noundef nonnull align 8 dereferenceable(48) %3)
          to label %6 unwind label %15

6:                                                ; preds = %4
  %7 = getelementptr inbounds i8, ptr %5, i64 16
  %8 = load ptr, ptr %7, align 8
  %9 = getelementptr inbounds i8, ptr %5, i64 24
  %10 = load ptr, ptr %9, align 8
  %.not4.i.i.i.i.i = icmp eq ptr %8, %10
  br i1 %.not4.i.i.i.i.i, label %_ZSt8_DestroyIPN6casadi6SXElemES1_EvT_S3_RSaIT0_E.exit.i.i, label %.lr.ph.i.i.i.i.i

.lr.ph.i.i.i.i.i:                                 ; preds = %6, %.lr.ph.i.i.i.i.i
  %.05.i.i.i.i.i = phi ptr [ %11, %.lr.ph.i.i.i.i.i ], [ %8, %6 ]
  call void @_ZN6casadi6SXElemD1Ev(ptr noundef nonnull align 8 dereferenceable(8) %.05.i.i.i.i.i) #26
  %11 = getelementptr inbounds i8, ptr %.05.i.i.i.i.i, i64 8
  %.not.i.i.i.i.i = icmp eq ptr %11, %10
  br i1 %.not.i.i.i.i.i, label %_ZSt8_DestroyIPN6casadi6SXElemES1_EvT_S3_RSaIT0_E.exitthread-pre-split.i.i, label %.lr.ph.i.i.i.i.i, !llvm.loop !6

_ZSt8_DestroyIPN6casadi6SXElemES1_EvT_S3_RSaIT0_E.exitthread-pre-split.i.i: ; preds = %.lr.ph.i.i.i.i.i
  %.pr.i.i = load ptr, ptr %7, align 8
  br label %_ZSt8_DestroyIPN6casadi6SXElemES1_EvT_S3_RSaIT0_E.exit.i.i

_ZSt8_DestroyIPN6casadi6SXElemES1_EvT_S3_RSaIT0_E.exit.i.i: ; preds = %_ZSt8_DestroyIPN6casadi6SXElemES1_EvT_S3_RSaIT0_E.exitthread-pre-split.i.i, %6
  %12 = phi ptr [ %.pr.i.i, %_ZSt8_DestroyIPN6casadi6SXElemES1_EvT_S3_RSaIT0_E.exitthread-pre-split.i.i ], [ %8, %6 ]
  %.not.i.i.i.i = icmp eq ptr %12, null
  br i1 %.not.i.i.i.i, label %_ZN6casadi6MatrixINS_6SXElemEED2Ev.exit, label %13

13:                                               ; preds = %_ZSt8_DestroyIPN6casadi6SXElemES1_EvT_S3_RSaIT0_E.exit.i.i
  call void @_ZdlPv(ptr noundef nonnull %12) #30
  br label %_ZN6casadi6MatrixINS_6SXElemEED2Ev.exit

_ZN6casadi6MatrixINS_6SXElemEED2Ev.exit:          ; preds = %_ZSt8_DestroyIPN6casadi6SXElemES1_EvT_S3_RSaIT0_E.exit.i.i, %13
  %14 = getelementptr inbounds i8, ptr %5, i64 8
  call void @_ZN6casadi12SharedObjectD2Ev(ptr noundef nonnull align 8 dereferenceable(8) %14) #26
  ret void

15:                                               ; preds = %4
  %16 = landingpad { ptr, i32 }
          cleanup
  call void @_ZN6casadi6MatrixINS_6SXElemEED2Ev(ptr noundef nonnull align 8 dereferenceable(40) %5) #26
  resume { ptr, i32 } %16
}